target datalayout = "e-m:e-p270:32:32-p271:32:32-p272:64:64-i64:64-i128:128-f80:128-n8:16:32:64-S128"
target triple = "x86_64-pc-linux-gnu"

; Function Attrs: nounwind uwtable
define internal void @DispatchAlphaToGreen_C(ptr noalias noundef %0, i32 noundef %1, i32 noundef %2, i32 noundef %3, ptr noalias noundef %4, i32 noundef %5) #0 {
  %7 = alloca ptr, align 8
  %8 = alloca i32, align 4
  %9 = alloca i32, align 4
  %10 = alloca i32, align 4
  %11 = alloca ptr, align 8
  %12 = alloca i32, align 4
  %13 = alloca i32, align 4
  %14 = alloca i32, align 4
  store ptr %0, ptr %7, align 8, !tbaa !13
  store i32 %1, ptr %8, align 4, !tbaa !8
  store i32 %2, ptr %9, align 4, !tbaa !8
  store i32 %3, ptr %10, align 4, !tbaa !8
  store ptr %4, ptr %11, align 8, !tbaa !3
  store i32 %5, ptr %12, align 4, !tbaa !8
  call void @llvm.lifetime.start.p0(i64 4, ptr %13) #5
  call void @llvm.lifetime.start.p0(i64 4, ptr %14) #5
  store i32 0, ptr %14, align 4, !tbaa !8
  br label %15

15:                                               ; preds = %48, %6
  %16 = load i32, ptr %14, align 4, !tbaa !8
  %17 = load i32, ptr %10, align 4, !tbaa !8
  %18 = icmp slt i32 %16, %17
  br i1 %18, label %19, label %51

19:                                               ; preds = %15
  store i32 0, ptr %13, align 4, !tbaa !8
  br label %20

20:                                               ; preds = %36, %19
  %21 = load i32, ptr %13, align 4, !tbaa !8
  %22 = load i32, ptr %9, align 4, !tbaa !8
  %23 = icmp slt i32 %21, %22
  br i1 %23, label %24, label %39

24:                                               ; preds = %20
  %25 = load ptr, ptr %7, align 8, !tbaa !13
  %26 = load i32, ptr %13, align 4, !tbaa !8
  %27 = sext i32 %26 to i64
  %28 = getelementptr inbounds i8, ptr %25, i64 %27
  %29 = load i8, ptr %28, align 1, !tbaa !12
  %30 = zext i8 %29 to i32
  %31 = shl i32 %30, 8
  %32 = load ptr, ptr %11, align 8, !tbaa !3
  %33 = load i32, ptr %13, align 4, !tbaa !8
  %34 = sext i32 %33 to i64
  %35 = getelementptr inbounds i32, ptr %32, i64 %34
  store i32 %31, ptr %35, align 4, !tbaa !8
  br label %36

36:                                               ; preds = %24
  %37 = load i32, ptr %13, align 4, !tbaa !8
  %38 = add nsw i32 %37, 1
  store i32 %38, ptr %13, align 4, !tbaa !8
  br label %20, !llvm.loop !24

39:                                               ; preds = %20
  %40 = load i32, ptr %8, align 4, !tbaa !8
  %41 = load ptr, ptr %7, align 8, !tbaa !13
  %42 = sext i32 %40 to i64
  %43 = getelementptr inbounds i8, ptr %41, i64 %42
  store ptr %43, ptr %7, align 8, !tbaa !13
  %44 = load i32, ptr %12, align 4, !tbaa !8
  %45 = load ptr, ptr %11, align 8, !tbaa !3
  %46 = sext i32 %44 to i64
  %47 = getelementptr inbounds i32, ptr %45, i64 %46
  store ptr %47, ptr %11, align 8, !tbaa !3
  br label %48

48:                                               ; preds = %39
  %49 = load i32, ptr %14, align 4, !tbaa !8
  %50 = add nsw i32 %49, 1
  store i32 %50, ptr %14, align 4, !tbaa !8
  br label %15, !llvm.loop !25

51:                                               ; preds = %15
  call void @llvm.lifetime.end.p0(i64 4, ptr %14) #5
  call void @llvm.lifetime.end.p0(i64 4, ptr %13) #5
  ret void
}