; Function Attrs: nofree norecurse nosync nounwind memory(argmem: readwrite) uwtable
define internal void @DispatchAlphaToGreen_C(ptr noalias noundef readonly captures(none) %0, i32 noundef %1, i32 noundef %2, i32 noundef %3, ptr noalias noundef writeonly captures(none) %4, i32 noundef %5) #0 {
  %7 = icmp sgt i32 %3, 0
  br i1 %7, label %.preheader.lr.ph, label %._crit_edge20

.preheader.lr.ph:                                 ; preds = %6
  %8 = icmp sgt i32 %2, 0
  %9 = sext i32 %1 to i64
  %10 = sext i32 %5 to i64
  br i1 %8, label %.preheader.us.preheader, label %._crit_edge20

.preheader.us.preheader:                          ; preds = %.preheader.lr.ph
  %wide.trip.count = zext nneg i32 %2 to i64
  br label %.preheader.us

.preheader.us:                                    ; preds = %.preheader.us.preheader, %._crit_edge.us
  %.019.us = phi i32 [ %19, %._crit_edge.us ], [ 0, %.preheader.us.preheader ]
  %.01418.us = phi ptr [ %17, %._crit_edge.us ], [ %0, %.preheader.us.preheader ]
  %.01517.us = phi ptr [ %18, %._crit_edge.us ], [ %4, %.preheader.us.preheader ]
  br label %11

11:                                               ; preds = %.preheader.us, %11
  %indvars.iv = phi i64 [ 0, %.preheader.us ], [ %indvars.iv.next, %11 ]
  %12 = getelementptr inbounds nuw i8, ptr %.01418.us, i64 %indvars.iv
  %13 = load i8, ptr %12, align 1, !tbaa !9
  %14 = zext i8 %13 to i32
  %15 = shl nuw nsw i32 %14, 8
  %16 = getelementptr inbounds nuw i32, ptr %.01517.us, i64 %indvars.iv
  store i32 %15, ptr %16, align 4, !tbaa !3
  %indvars.iv.next = add nuw nsw i64 %indvars.iv, 1
  %exitcond.not = icmp eq i64 %indvars.iv.next, %wide.trip.count
  br i1 %exitcond.not, label %._crit_edge.us, label %11, !llvm.loop !22

._crit_edge.us:                                   ; preds = %11
  %17 = getelementptr inbounds i8, ptr %.01418.us, i64 %9
  %18 = getelementptr inbounds i32, ptr %.01517.us, i64 %10
  %19 = add nuw nsw i32 %.019.us, 1
  %exitcond23.not = icmp eq i32 %19, %3
  br i1 %exitcond23.not, label %._crit_edge20, label %.preheader.us, !llvm.loop !23

._crit_edge20:                                    ; preds = %._crit_edge.us, %.preheader.lr.ph, %6
  ret void
}